target datalayout = "e-m:e-p270:32:32-p271:32:32-p272:64:64-i64:64-i128:128-f80:128-n8:16:32:64-S128"
target triple = "x86_64-pc-linux-gnu"

%struct._zval_struct = type { %union._zend_value, %union.anon.0, %union.anon.3 }
%union._zend_value = type { i64 }
%union.anon.0 = type { i32 }
%union.anon.3 = type { i32 }
%struct._zend_array = type { %struct._zend_refcounted_h, %union.anon.4, i32, %union.anon.6, i32, i32, i32, i32, i64, ptr }
%struct._zend_refcounted_h = type { i32, %union.anon }
%union.anon = type { i32 }
%union.anon.4 = type { i32 }
%union.anon.6 = type { ptr }
%struct._dom_object = type { ptr, ptr, ptr, %struct._zend_object }
%struct._zend_object = type { %struct._zend_refcounted_h, i32, ptr, ptr, ptr, [1 x %struct._zval_struct] }
%struct._dom_nnodemap_object = type { ptr, %struct._zval_struct, i32, i32, ptr, ptr, ptr, %struct.php_libxml_cache_tag, ptr, i32, i8 }
%struct.php_libxml_cache_tag = type { i64 }
%struct._zend_object_handlers = type { i32, ptr, ptr, ptr, ptr, ptr, ptr, ptr, ptr, ptr, ptr, ptr, ptr, ptr, ptr, ptr, ptr, ptr, ptr, ptr, ptr, ptr, ptr, ptr, ptr }
%struct._php_libxml_node_ptr = type { ptr, i32, ptr }
%struct._php_libxml_node_object = type { ptr, ptr, %struct._zend_object }
%struct._php_libxml_ref_obj = type { ptr, ptr, %struct.php_libxml_cache_tag, i32, i8 }
%struct._xmlNode = type { ptr, i32, ptr, ptr, ptr, ptr, ptr, ptr, ptr, ptr, ptr, ptr, ptr, ptr, i16, i16 }

; Function Attrs: nounwind uwtable
define hidden i32 @php_dom_get_nodelist_length(ptr noundef %0) #0 {
  %2 = alloca ptr, align 8
  %3 = alloca ptr, align 8
  %4 = alloca ptr, align 8
  %5 = alloca ptr, align 8
  %6 = alloca ptr, align 8
  %7 = alloca ptr, align 8
  %8 = alloca ptr, align 8
  %9 = alloca ptr, align 8
  %10 = alloca ptr, align 8
  %11 = alloca i1, align 1
  %12 = alloca ptr, align 8
  %13 = alloca ptr, align 8
  %14 = alloca ptr, align 8
  %15 = alloca ptr, align 8
  %16 = alloca ptr, align 8
  %17 = alloca ptr, align 8
  %18 = alloca ptr, align 8
  %19 = alloca i32, align 4
  %20 = alloca ptr, align 8
  %21 = alloca ptr, align 8
  %22 = alloca ptr, align 8
  %23 = alloca ptr, align 8
  %24 = alloca i32, align 4
  %25 = alloca ptr, align 8
  %26 = alloca ptr, align 8
  store ptr %0, ptr %20, align 8
  %27 = load ptr, ptr %20, align 8
  %28 = getelementptr inbounds %struct._dom_object, ptr %27, i32 0, i32 0
  %29 = load ptr, ptr %28, align 8
  store ptr %29, ptr %21, align 8
  %30 = load ptr, ptr %21, align 8
  %31 = icmp ne ptr %30, null
  br i1 %31, label %33, label %32

32:                                               ; preds = %1
  store i32 0, ptr %19, align 4
  br label %273

33:                                               ; preds = %1
  %34 = load ptr, ptr %21, align 8
  %35 = getelementptr inbounds %struct._dom_nnodemap_object, ptr %34, i32 0, i32 4
  %36 = load ptr, ptr %35, align 8
  %37 = icmp ne ptr %36, null
  br i1 %37, label %38, label %43

38:                                               ; preds = %33
  %39 = load ptr, ptr %21, align 8
  %40 = getelementptr inbounds %struct._dom_nnodemap_object, ptr %39, i32 0, i32 4
  %41 = load ptr, ptr %40, align 8
  %42 = call i32 @xmlHashSize(ptr noundef %41)
  store i32 %42, ptr %19, align 4
  br label %273

43:                                               ; preds = %33
  %44 = load ptr, ptr %21, align 8
  %45 = getelementptr inbounds %struct._dom_nnodemap_object, ptr %44, i32 0, i32 2
  %46 = load i32, ptr %45, align 8
  %47 = icmp eq i32 %46, 19
  br i1 %47, label %48, label %92

48:                                               ; preds = %43
  %49 = load ptr, ptr %21, align 8
  %50 = getelementptr inbounds %struct._dom_nnodemap_object, ptr %49, i32 0, i32 1
  store ptr %50, ptr %17, align 8
  %51 = load ptr, ptr %17, align 8
  %52 = getelementptr inbounds %struct._zval_struct, ptr %51, i32 0, i32 1
  %53 = load i8, ptr %52, align 8
  %54 = zext i8 %53 to i32
  %55 = icmp eq i32 %54, 7
  br i1 %55, label %56, label %61

56:                                               ; preds = %48
  %57 = load ptr, ptr %21, align 8
  %58 = getelementptr inbounds %struct._dom_nnodemap_object, ptr %57, i32 0, i32 1
  %59 = getelementptr inbounds %struct._zval_struct, ptr %58, i32 0, i32 0
  %60 = load ptr, ptr %59, align 8
  br label %86

61:                                               ; preds = %48
  %62 = load ptr, ptr %21, align 8
  %63 = getelementptr inbounds %struct._dom_nnodemap_object, ptr %62, i32 0, i32 1
  store ptr %63, ptr %18, align 8
  %64 = load ptr, ptr %18, align 8
  %65 = getelementptr inbounds %struct._zval_struct, ptr %64, i32 0, i32 1
  %66 = load i8, ptr %65, align 8
  %67 = zext i8 %66 to i32
  %68 = icmp eq i32 %67, 8
  br i1 %68, label %69, label %83

69:                                               ; preds = %61
  %70 = load ptr, ptr %21, align 8
  %71 = getelementptr inbounds %struct._dom_nnodemap_object, ptr %70, i32 0, i32 1
  %72 = getelementptr inbounds %struct._zval_struct, ptr %71, i32 0, i32 0
  %73 = load ptr, ptr %72, align 8
  %74 = getelementptr inbounds %struct._zend_object, ptr %73, i32 0, i32 3
  %75 = load ptr, ptr %74, align 8
  %76 = getelementptr inbounds %struct._zend_object_handlers, ptr %75, i32 0, i32 13
  %77 = load ptr, ptr %76, align 8
  %78 = load ptr, ptr %21, align 8
  %79 = getelementptr inbounds %struct._dom_nnodemap_object, ptr %78, i32 0, i32 1
  %80 = getelementptr inbounds %struct._zval_struct, ptr %79, i32 0, i32 0
  %81 = load ptr, ptr %80, align 8
  %82 = call ptr %77(ptr noundef %81)
  br label %84

83:                                               ; preds = %61
  br label %84

84:                                               ; preds = %83, %69
  %85 = phi ptr [ %82, %69 ], [ null, %83 ]
  br label %86

86:                                               ; preds = %84, %56
  %87 = phi ptr [ %60, %56 ], [ %85, %84 ]
  store ptr %87, ptr %22, align 8
  %88 = load ptr, ptr %22, align 8
  store ptr %88, ptr %16, align 8
  %89 = load ptr, ptr %16, align 8
  %90 = getelementptr inbounds %struct._zend_array, ptr %89, i32 0, i32 5
  %91 = load i32, ptr %90, align 4
  store i32 %91, ptr %19, align 4
  br label %273

92:                                               ; preds = %43
  %93 = load ptr, ptr %21, align 8
  %94 = getelementptr inbounds %struct._dom_nnodemap_object, ptr %93, i32 0, i32 0
  %95 = load ptr, ptr %94, align 8
  %96 = call ptr @dom_object_get_node(ptr noundef %95)
  store ptr %96, ptr %23, align 8
  %97 = load ptr, ptr %23, align 8
  %98 = icmp ne ptr %97, null
  br i1 %98, label %100, label %99

99:                                               ; preds = %92
  store i32 0, ptr %19, align 4
  br label %273

100:                                              ; preds = %92
  %101 = load ptr, ptr %21, align 8
  %102 = getelementptr inbounds %struct._dom_nnodemap_object, ptr %101, i32 0, i32 7
  %103 = load ptr, ptr %23, align 8
  store ptr %102, ptr %12, align 8
  store ptr %103, ptr %13, align 8
  %104 = load ptr, ptr %13, align 8
  %105 = icmp ne ptr %104, null
  call void @llvm.assume(i1 %105)
  %106 = load ptr, ptr %13, align 8
  %107 = load ptr, ptr %106, align 8
  store ptr %107, ptr %14, align 8
  %108 = load ptr, ptr %14, align 8
  %109 = icmp ne ptr %108, null
  br i1 %109, label %111, label %110

110:                                              ; preds = %100
  store i1 true, ptr %11, align 1
  br label %138

111:                                              ; preds = %100
  %112 = load ptr, ptr %14, align 8
  %113 = getelementptr inbounds %struct._php_libxml_node_ptr, ptr %112, i32 0, i32 2
  %114 = load ptr, ptr %113, align 8
  store ptr %114, ptr %15, align 8
  %115 = load ptr, ptr %15, align 8
  %116 = icmp ne ptr %115, null
  br i1 %116, label %117, label %122

117:                                              ; preds = %111
  %118 = load ptr, ptr %15, align 8
  %119 = getelementptr inbounds %struct._php_libxml_node_object, ptr %118, i32 0, i32 1
  %120 = load ptr, ptr %119, align 8
  %121 = icmp ne ptr %120, null
  br i1 %121, label %123, label %122

122:                                              ; preds = %117, %111
  store i1 true, ptr %11, align 1
  br label %138

123:                                              ; preds = %117
  %124 = load ptr, ptr %12, align 8
  %125 = load ptr, ptr %15, align 8
  %126 = getelementptr inbounds %struct._php_libxml_node_object, ptr %125, i32 0, i32 1
  %127 = load ptr, ptr %126, align 8
  store ptr %124, ptr %3, align 8
  store ptr %127, ptr %4, align 8
  %128 = load ptr, ptr %3, align 8
  %129 = icmp ne ptr %128, null
  call void @llvm.assume(i1 %129)
  %130 = load ptr, ptr %4, align 8
  %131 = icmp ne ptr %130, null
  call void @llvm.assume(i1 %131)
  %132 = load ptr, ptr %3, align 8
  %133 = load i64, ptr %132, align 8
  %134 = load ptr, ptr %4, align 8
  %135 = getelementptr inbounds %struct._php_libxml_ref_obj, ptr %134, i32 0, i32 2
  %136 = load i64, ptr %135, align 8
  %137 = icmp ne i64 %133, %136
  store i1 %137, ptr %11, align 1
  br label %138

138:                                              ; preds = %123, %122, %110
  %139 = load i1, ptr %11, align 1
  br i1 %139, label %150, label %140

140:                                              ; preds = %138
  %141 = load ptr, ptr %21, align 8
  %142 = getelementptr inbounds %struct._dom_nnodemap_object, ptr %141, i32 0, i32 3
  %143 = load i32, ptr %142, align 4
  %144 = icmp sge i32 %143, 0
  br i1 %144, label %145, label %149

145:                                              ; preds = %140
  %146 = load ptr, ptr %21, align 8
  %147 = getelementptr inbounds %struct._dom_nnodemap_object, ptr %146, i32 0, i32 3
  %148 = load i32, ptr %147, align 4
  store i32 %148, ptr %19, align 4
  br label %273

149:                                              ; preds = %140
  br label %208

150:                                              ; preds = %138
  %151 = load ptr, ptr %21, align 8
  %152 = getelementptr inbounds %struct._dom_nnodemap_object, ptr %151, i32 0, i32 7
  %153 = load ptr, ptr %23, align 8
  store ptr %152, ptr %7, align 8
  store ptr %153, ptr %8, align 8
  %154 = load ptr, ptr %7, align 8
  %155 = icmp ne ptr %154, null
  call void @llvm.assume(i1 %155)
  %156 = load ptr, ptr %8, align 8
  %157 = load ptr, ptr %156, align 8
  store ptr %157, ptr %9, align 8
  %158 = load ptr, ptr %9, align 8
  %159 = icmp ne ptr %158, null
  br i1 %159, label %160, label %176

160:                                              ; preds = %150
  %161 = load ptr, ptr %9, align 8
  %162 = getelementptr inbounds %struct._php_libxml_node_ptr, ptr %161, i32 0, i32 2
  %163 = load ptr, ptr %162, align 8
  store ptr %163, ptr %10, align 8
  %164 = load ptr, ptr %10, align 8
  %165 = getelementptr inbounds %struct._php_libxml_node_object, ptr %164, i32 0, i32 1
  %166 = load ptr, ptr %165, align 8
  %167 = icmp ne ptr %166, null
  br i1 %167, label %168, label %175

168:                                              ; preds = %160
  %169 = load ptr, ptr %10, align 8
  %170 = getelementptr inbounds %struct._php_libxml_node_object, ptr %169, i32 0, i32 1
  %171 = load ptr, ptr %170, align 8
  %172 = getelementptr inbounds %struct._php_libxml_ref_obj, ptr %171, i32 0, i32 2
  %173 = load i64, ptr %172, align 8
  %174 = load ptr, ptr %7, align 8
  store i64 %173, ptr %174, align 8
  br label %175

175:                                              ; preds = %168, %160
  br label %176

176:                                              ; preds = %175, %150
  %177 = load ptr, ptr %21, align 8
  store ptr %177, ptr %6, align 8
  %178 = load ptr, ptr %6, align 8
  store ptr %178, ptr %5, align 8
  %179 = load ptr, ptr %5, align 8
  %180 = getelementptr inbounds %struct._dom_nnodemap_object, ptr %179, i32 0, i32 8
  %181 = load ptr, ptr %180, align 8
  %182 = icmp ne ptr %181, null
  br i1 %182, label %183, label %205

183:                                              ; preds = %176
  %184 = load ptr, ptr %5, align 8
  %185 = getelementptr inbounds %struct._dom_nnodemap_object, ptr %184, i32 0, i32 8
  %186 = load ptr, ptr %185, align 8
  %187 = getelementptr inbounds %struct._dom_object, ptr %186, i32 0, i32 3
  store ptr %187, ptr %2, align 8
  %188 = load ptr, ptr %2, align 8
  %189 = load i32, ptr %188, align 4
  %190 = icmp ugt i32 %189, 0
  call void @llvm.assume(i1 %190)
  %191 = load ptr, ptr %2, align 8
  %192 = load i32, ptr %191, align 4
  %193 = add i32 %192, -1
  store i32 %193, ptr %191, align 4
  %194 = icmp eq i32 %193, 0
  br i1 %194, label %195, label %200

195:                                              ; preds = %183
  %196 = load ptr, ptr %5, align 8
  %197 = getelementptr inbounds %struct._dom_nnodemap_object, ptr %196, i32 0, i32 8
  %198 = load ptr, ptr %197, align 8
  %199 = getelementptr inbounds %struct._dom_object, ptr %198, i32 0, i32 3
  call void @zend_objects_store_del(ptr noundef %199) #3
  br label %200

200:                                              ; preds = %195, %183
  %201 = load ptr, ptr %5, align 8
  %202 = getelementptr inbounds %struct._dom_nnodemap_object, ptr %201, i32 0, i32 8
  store ptr null, ptr %202, align 8
  %203 = load ptr, ptr %5, align 8
  %204 = getelementptr inbounds %struct._dom_nnodemap_object, ptr %203, i32 0, i32 9
  store i32 0, ptr %204, align 8
  br label %205

205:                                              ; preds = %200, %176
  %206 = load ptr, ptr %6, align 8
  %207 = getelementptr inbounds %struct._dom_nnodemap_object, ptr %206, i32 0, i32 3
  store i32 -1, ptr %207, align 4
  br label %208

208:                                              ; preds = %205, %149
  store i32 0, ptr %24, align 4
  %209 = load ptr, ptr %21, align 8
  %210 = getelementptr inbounds %struct._dom_nnodemap_object, ptr %209, i32 0, i32 2
  %211 = load i32, ptr %210, align 8
  %212 = icmp eq i32 %211, 2
  br i1 %212, label %218, label %213

213:                                              ; preds = %208
  %214 = load ptr, ptr %21, align 8
  %215 = getelementptr inbounds %struct._dom_nnodemap_object, ptr %214, i32 0, i32 2
  %216 = load i32, ptr %215, align 8
  %217 = icmp eq i32 %216, 1
  br i1 %217, label %218, label %240

218:                                              ; preds = %213, %208
  %219 = load ptr, ptr %23, align 8
  %220 = getelementptr inbounds %struct._xmlNode, ptr %219, i32 0, i32 3
  %221 = load ptr, ptr %220, align 8
  store ptr %221, ptr %25, align 8
  %222 = load ptr, ptr %25, align 8
  %223 = icmp ne ptr %222, null
  br i1 %223, label %224, label %239

224:                                              ; preds = %218
  %225 = load i32, ptr %24, align 4
  %226 = add nsw i32 %225, 1
  store i32 %226, ptr %24, align 4
  br label %227

227:                                              ; preds = %232, %224
  %228 = load ptr, ptr %25, align 8
  %229 = getelementptr inbounds %struct._xmlNode, ptr %228, i32 0, i32 6
  %230 = load ptr, ptr %229, align 8
  %231 = icmp ne ptr %230, null
  br i1 %231, label %232, label %238

232:                                              ; preds = %227
  %233 = load i32, ptr %24, align 4
  %234 = add nsw i32 %233, 1
  store i32 %234, ptr %24, align 4
  %235 = load ptr, ptr %25, align 8
  %236 = getelementptr inbounds %struct._xmlNode, ptr %235, i32 0, i32 6
  %237 = load ptr, ptr %236, align 8
  store ptr %237, ptr %25, align 8
  br label %227

238:                                              ; preds = %227
  br label %239

239:                                              ; preds = %238, %218
  br label %268

240:                                              ; preds = %213
  %241 = load ptr, ptr %23, align 8
  store ptr %241, ptr %26, align 8
  %242 = load ptr, ptr %23, align 8
  %243 = getelementptr inbounds %struct._xmlNode, ptr %242, i32 0, i32 1
  %244 = load i32, ptr %243, align 8
  %245 = icmp eq i32 %244, 9
  br i1 %245, label %251, label %246

246:                                              ; preds = %240
  %247 = load ptr, ptr %23, align 8
  %248 = getelementptr inbounds %struct._xmlNode, ptr %247, i32 0, i32 1
  %249 = load i32, ptr %248, align 8
  %250 = icmp eq i32 %249, 13
  br i1 %250, label %251, label %254

251:                                              ; preds = %246, %240
  %252 = load ptr, ptr %23, align 8
  %253 = call ptr @xmlDocGetRootElement(ptr noundef %252)
  store ptr %253, ptr %23, align 8
  br label %258

254:                                              ; preds = %246
  %255 = load ptr, ptr %23, align 8
  %256 = getelementptr inbounds %struct._xmlNode, ptr %255, i32 0, i32 3
  %257 = load ptr, ptr %256, align 8
  store ptr %257, ptr %23, align 8
  br label %258

258:                                              ; preds = %254, %251
  %259 = load ptr, ptr %26, align 8
  %260 = load ptr, ptr %23, align 8
  %261 = load ptr, ptr %21, align 8
  %262 = getelementptr inbounds %struct._dom_nnodemap_object, ptr %261, i32 0, i32 6
  %263 = load ptr, ptr %262, align 8
  %264 = load ptr, ptr %21, align 8
  %265 = getelementptr inbounds %struct._dom_nnodemap_object, ptr %264, i32 0, i32 5
  %266 = load ptr, ptr %265, align 8
  %267 = call ptr @dom_get_elements_by_tag_name_ns_raw(ptr noundef %259, ptr noundef %260, ptr noundef %263, ptr noundef %266, ptr noundef %24, i32 noundef 2147483646)
  br label %268

268:                                              ; preds = %258, %239
  %269 = load i32, ptr %24, align 4
  %270 = load ptr, ptr %21, align 8
  %271 = getelementptr inbounds %struct._dom_nnodemap_object, ptr %270, i32 0, i32 3
  store i32 %269, ptr %271, align 4
  %272 = load i32, ptr %24, align 4
  store i32 %272, ptr %19, align 4
  br label %273

273:                                              ; preds = %268, %145, %99, %86, %38, %32
  %274 = load i32, ptr %19, align 4
  ret i32 %274
}