; Function Attrs: nounwind uwtable
define hidden i32 @php_dom_get_nodelist_length(ptr nocapture noundef readonly %0) local_unnamed_addr #0 {
  %2 = alloca i32, align 4
  %3 = load ptr, ptr %0, align 8
  %.not = icmp eq ptr %3, null
  br i1 %.not, label %91, label %4

4:                                                ; preds = %1
  %5 = getelementptr inbounds i8, ptr %3, i64 32
  %6 = load ptr, ptr %5, align 8
  %.not85 = icmp eq ptr %6, null
  br i1 %.not85, label %9, label %7

7:                                                ; preds = %4
  %8 = tail call i32 @xmlHashSize(ptr noundef nonnull %6) #3
  br label %91

9:                                                ; preds = %4
  %10 = getelementptr inbounds i8, ptr %3, i64 24
  %11 = load i32, ptr %10, align 8
  %12 = icmp eq i32 %11, 19
  br i1 %12, label %13, label %28

13:                                               ; preds = %9
  %14 = getelementptr inbounds i8, ptr %3, i64 8
  %15 = getelementptr inbounds i8, ptr %3, i64 16
  %16 = load i8, ptr %15, align 8
  %switch = icmp eq i8 %16, 7
  %17 = load ptr, ptr %14, align 8
  br i1 %switch, label %24, label %18

18:                                               ; preds = %13
  %19 = getelementptr inbounds i8, ptr %17, i64 24
  %20 = load ptr, ptr %19, align 8
  %21 = getelementptr inbounds i8, ptr %20, i64 104
  %22 = load ptr, ptr %21, align 8
  %23 = tail call ptr %22(ptr noundef %17) #3
  br label %24

24:                                               ; preds = %13, %18
  %25 = phi ptr [ %23, %18 ], [ %17, %13 ]
  %26 = getelementptr inbounds i8, ptr %25, i64 28
  %27 = load i32, ptr %26, align 4
  br label %91

28:                                               ; preds = %9
  %29 = load ptr, ptr %3, align 8
  %30 = tail call ptr @dom_object_get_node(ptr noundef %29) #3
  %.not86 = icmp eq ptr %30, null
  br i1 %.not86, label %91, label %31

31:                                               ; preds = %28
  %32 = getelementptr inbounds i8, ptr %3, i64 56
  %33 = load ptr, ptr %30, align 8
  %.not87 = icmp eq ptr %33, null
  br i1 %.not87, label %.critedge, label %34

34:                                               ; preds = %31
  %35 = getelementptr inbounds i8, ptr %33, i64 16
  %36 = load ptr, ptr %35, align 8
  %.not88 = icmp eq ptr %36, null
  br i1 %.not88, label %48, label %37

37:                                               ; preds = %34
  %38 = getelementptr inbounds i8, ptr %36, i64 8
  %39 = load ptr, ptr %38, align 8
  %.not89 = icmp eq ptr %39, null
  br i1 %.not89, label %.critedge, label %40

40:                                               ; preds = %37
  %41 = load i64, ptr %32, align 8
  %42 = getelementptr inbounds i8, ptr %39, i64 16
  %43 = load i64, ptr %42, align 8
  %.not97 = icmp eq i64 %41, %43
  br i1 %.not97, label %44, label %.thread100

44:                                               ; preds = %40
  %45 = getelementptr inbounds i8, ptr %3, i64 28
  %46 = load i32, ptr %45, align 4
  %47 = icmp sgt i32 %46, -1
  br i1 %47, label %91, label %67

48:                                               ; preds = %34
  %.pre = load ptr, ptr inttoptr (i64 8 to ptr), align 8
  %.not91 = icmp eq ptr %.pre, null
  br i1 %.not91, label %.critedge, label %.thread100

.thread100:                                       ; preds = %40, %48
  %49 = phi ptr [ %.pre, %48 ], [ %39, %40 ]
  %50 = getelementptr inbounds i8, ptr %49, i64 16
  %51 = load i64, ptr %50, align 8
  store i64 %51, ptr %32, align 8
  br label %.critedge

.critedge:                                        ; preds = %37, %31, %48, %.thread100
  %52 = getelementptr inbounds i8, ptr %3, i64 64
  %53 = load ptr, ptr %52, align 8
  %.not92 = icmp eq ptr %53, null
  br i1 %.not92, label %65, label %54

54:                                               ; preds = %.critedge
  %55 = getelementptr inbounds i8, ptr %53, i64 24
  %56 = load i32, ptr %55, align 4
  %57 = icmp ne i32 %56, 0
  tail call void @llvm.assume(i1 %57)
  %58 = add i32 %56, -1
  store i32 %58, ptr %55, align 4
  %59 = icmp eq i32 %58, 0
  br i1 %59, label %60, label %63

60:                                               ; preds = %54
  %61 = load ptr, ptr %52, align 8
  %62 = getelementptr inbounds i8, ptr %61, i64 24
  tail call void @zend_objects_store_del(ptr noundef nonnull %62) #3
  br label %63

63:                                               ; preds = %60, %54
  store ptr null, ptr %52, align 8
  %64 = getelementptr inbounds i8, ptr %3, i64 72
  store i32 0, ptr %64, align 8
  br label %65

65:                                               ; preds = %63, %.critedge
  %66 = getelementptr inbounds i8, ptr %3, i64 28
  store i32 -1, ptr %66, align 4
  br label %67

67:                                               ; preds = %44, %65
  store i32 0, ptr %2, align 4
  %68 = load i32, ptr %10, align 8
  %.off95 = add i32 %68, -1
  %switch96 = icmp ult i32 %.off95, 2
  br i1 %switch96, label %69, label %75

69:                                               ; preds = %67
  %70 = getelementptr inbounds i8, ptr %30, i64 24
  %71 = load ptr, ptr %70, align 8
  %.not93 = icmp eq ptr %71, null
  br i1 %.not93, label %.loopexit, label %.preheader

.preheader:                                       ; preds = %69, %.preheader
  %storemerge = phi i32 [ %74, %.preheader ], [ 1, %69 ]
  %.068 = phi ptr [ %73, %.preheader ], [ %71, %69 ]
  %72 = getelementptr inbounds i8, ptr %.068, i64 48
  %73 = load ptr, ptr %72, align 8
  %.not94 = icmp eq ptr %73, null
  %74 = add nuw nsw i32 %storemerge, 1
  br i1 %.not94, label %.loopexit, label %.preheader

75:                                               ; preds = %67
  %76 = getelementptr inbounds i8, ptr %30, i64 8
  %77 = load i32, ptr %76, align 8
  switch i32 %77, label %80 [
    i32 9, label %78
    i32 13, label %78
  ]

78:                                               ; preds = %75, %75
  %79 = tail call ptr @xmlDocGetRootElement(ptr noundef nonnull %30) #3
  br label %83

80:                                               ; preds = %75
  %81 = getelementptr inbounds i8, ptr %30, i64 24
  %82 = load ptr, ptr %81, align 8
  br label %83

83:                                               ; preds = %80, %78
  %.069 = phi ptr [ %79, %78 ], [ %82, %80 ]
  %84 = getelementptr inbounds i8, ptr %3, i64 48
  %85 = load ptr, ptr %84, align 8
  %86 = getelementptr inbounds i8, ptr %3, i64 40
  %87 = load ptr, ptr %86, align 8
  %88 = call ptr @dom_get_elements_by_tag_name_ns_raw(ptr noundef nonnull %30, ptr noundef %.069, ptr noundef %85, ptr noundef %87, ptr noundef nonnull %2, i32 noundef 2147483646) #3
  %.pre98 = load i32, ptr %2, align 4
  br label %.loopexit

.loopexit:                                        ; preds = %.preheader, %69, %83
  %89 = phi i32 [ 0, %69 ], [ %.pre98, %83 ], [ %storemerge, %.preheader ]
  %90 = getelementptr inbounds i8, ptr %3, i64 28
  store i32 %89, ptr %90, align 4
  br label %91

91:                                               ; preds = %44, %28, %1, %.loopexit, %24, %7
  %.070 = phi i32 [ %8, %7 ], [ %27, %24 ], [ %89, %.loopexit ], [ 0, %1 ], [ 0, %28 ], [ %46, %44 ]
  ret i32 %.070
}